; Function Attrs: mustprogress nounwind sspstrong uwtable
define internal fastcc void @"_ZN3tbb6detail2d010raii_guardIZNS0_2r117threading_control24create_threading_controlEvE3$_1ED2Ev"(ptr readonly captures(none) %.0.val, i8 %.8.val) unnamed_addr #3 align 2 personality ptr @__gxx_personality_v0 {
  %1 = trunc nuw i8 %.8.val to i1
  br i1 %1, label %2, label %"_ZZN3tbb6detail2r117threading_control24create_threading_controlEvENK3$_1clEv.exit"

2:                                                ; preds = %0
  invoke void @_ZN3tbb6detail2r121global_control_unlockEv()
          to label %.noexc unwind label %9

.noexc:                                           ; preds = %2
  %3 = load ptr, ptr %.0.val, align 8, !tbaa !149
  %4 = load ptr, ptr %3, align 8, !tbaa !150
  %.not.i.i.i.i = icmp eq ptr %4, null
  br i1 %.not.i.i.i.i, label %_ZNK3tbb6detail2r121cache_aligned_deleterclINS1_17threading_controlEEEvPT_.exit.i, label %5

5:                                                ; preds = %.noexc
  tail call void @_ZN3tbb6detail2r122threading_control_implD2Ev(ptr noundef nonnull align 8 dereferenceable(40) %4) #16
  invoke void @_ZN3tbb6detail2r124cache_aligned_deallocateEPv(ptr noundef nonnull %4)
          to label %_ZNK3tbb6detail2r121cache_aligned_deleterclINS1_17threading_controlEEEvPT_.exit.i unwind label %6

6:                                                ; preds = %5
  %7 = landingpad { ptr, i32 }
          catch ptr null
  %8 = extractvalue { ptr, i32 } %7, 0
  tail call void @__clang_call_terminate(ptr %8) #22
  unreachable

_ZNK3tbb6detail2r121cache_aligned_deleterclINS1_17threading_controlEEEvPT_.exit.i: ; preds = %5, %.noexc
  store ptr null, ptr %3, align 8, !tbaa !150
  invoke void @_ZN3tbb6detail2r124cache_aligned_deallocateEPv(ptr noundef nonnull %3)
          to label %"_ZZN3tbb6detail2r117threading_control24create_threading_controlEvENK3$_1clEv.exit" unwind label %9

"_ZZN3tbb6detail2r117threading_control24create_threading_controlEvENK3$_1clEv.exit": ; preds = %_ZNK3tbb6detail2r121cache_aligned_deleterclINS1_17threading_controlEEEvPT_.exit.i, %0
  ret void

9:                                                ; preds = %_ZNK3tbb6detail2r121cache_aligned_deleterclINS1_17threading_controlEEEvPT_.exit.i, %2
  %10 = landingpad { ptr, i32 }
          catch ptr null
  %11 = extractvalue { ptr, i32 } %10, 0
  tail call void @__clang_call_terminate(ptr %11) #22
  unreachable
}